Certificate:
    Data:
        Version: 3 (0x2)
        Serial Number: 53 (0x35)
        Signature Algorithm: sha256WithRSAEncryption
        Issuer: C=US, O=Google, OU=Enterprise, CN=Enterprise Subordinate CA
        Validity
            Not Before: Mar 26 20:52:30 2023 GMT
            Not After : Jul  3 20:52:30 2025 GMT
        Subject: C=US, O=Google, OU=Enterprise, CN=tee.operatordomain.com
        Subject Public Key Info:
            Public Key Algorithm: rsaEncryption
                Public-Key: (2048 bit)
                Modulus:
                    00:b0:c8:9c:d1:19:3a:ed:9d:86:cb:82:06:49:70:
                    f2:d8:ea:5f:f5:3e:f0:b1:ee:8b:e1:b7:67:fd:f8:
                    3f:1b:ba:41:12:8c:0a:eb:f2:27:6e:7d:cf:0a:5a:
                    76:3c:dd:a7:67:f8:cb:9c:62:78:d2:43:97:db:50:
                    ab:0a:4a:a5:b7:d4:ee:4d:20:63:dd:a4:98:58:24:
                    55:5a:a4:da:1c:f9:73:9f:39:d1:fb:e9:35:3f:cb:
                    97:9a:d4:9d:9a:1f:f0:d5:d0:1c:cd:aa:c8:b2:2e:
                    d0:ee:e2:ae:cc:8b:de:c4:05:02:81:0e:6c:c6:40:
                    f8:ec:40:cf:27:60:44:76:b7:74:07:3d:fc:70:f8:
                    58:ec:ce:49:3d:7d:12:ce:68:eb:aa:eb:b9:ac:95:
                    3a:8c:92:3a:53:2a:3c:1b:ce:56:57:90:a8:cb:47:
                    51:1a:a2:a9:a5:3a:4d:da:74:7d:e2:50:c2:d8:0e:
                    dd:ab:87:13:bd:3c:89:1e:e3:af:da:5c:74:cf:30:
                    47:62:62:9a:be:92:10:00:e6:1f:9e:ae:ad:aa:d0:
                    df:8b:f0:14:29:28:32:43:7a:cb:6e:1d:05:65:b2:
                    b5:c4:26:85:77:98:c8:18:8d:9c:28:6b:0f:b3:e5:
                    23:e0:85:51:2f:3d:80:15:45:48:bf:ce:0b:42:e3:
                    3e:8b
                Exponent: 65537 (0x10001)
        X509v3 extensions:
            X509v3 Key Usage: critical
                Digital Signature
            X509v3 Basic Constraints: 
                CA:FALSE
            X509v3 Extended Key Usage: 
                TLS Web Server Authentication
            X509v3 Subject Key Identifier: 
                0F:FB:C6:13:F0:36:5F:76:1F:A7:FB:F0:0E:06:15:77:0E:C4:F4:73
            X509v3 Authority Key Identifier: 
                B7:BA:B0:02:A1:E7:BE:34:C6:C1:05:5C:66:78:E5:BB:53:5D:A1:54
            Authority Information Access: 
                CA Issuers - URI:http://pki.esodemoapp2.com/ca/tls-ca.cer
            X509v3 CRL Distribution Points: 
                Full Name:
                  URI:http://pki.esodemoapp2.com/ca/tls-ca.crl
            X509v3 Subject Alternative Name: 
                DNS:tee.operatordomain.com
    Signature Algorithm: sha256WithRSAEncryption
    Signature Value:
        a6:aa:a5:a5:b8:5e:97:58:06:b1:49:8b:5b:b9:ca:ba:27:c5:
        75:d5:e2:fe:6a:3d:34:59:a0:77:57:90:02:97:b0:0a:e6:5b:
        88:6f:07:66:3e:ca:71:90:a4:c6:01:3b:53:52:9a:f8:1b:c7:
        a1:c6:ec:fe:b3:57:9c:9c:c0:54:1a:17:69:15:42:06:cf:62:
        6e:d7:5c:39:93:cb:b6:e2:b1:15:df:13:2a:08:6c:f9:1a:4a:
        46:3a:32:4e:6c:99:49:c4:28:01:b9:23:ad:34:a5:24:f3:ec:
        be:af:7c:3c:7e:20:f1:b0:ae:5c:43:3f:d8:d0:07:e7:25:43:
        5e:8d:33:bd:e3:e8:07:e4:05:e6:05:ea:2a:75:ba:1b:53:3f:
        29:97:b7:18:13:21:e8:c8:7c:b3:cb:2b:64:1b:6e:ef:79:fe:
        48:2d:4a:ef:0c:ce:a8:e7:27:9d:56:9d:47:38:e2:c5:f9:97:
        42:5d:97:a6:11:5f:41:a7:e8:1b:9a:5d:ce:b1:e1:0e:d5:57:
        4e:cd:b4:5b:86:09:9f:27:5c:fa:5d:f8:b5:e7:d8:8a:55:d8:
        04:33:8f:31:98:5c:79:33:fa:ec:79:b2:b0:89:b2:fc:74:c8:
        63:c8:68:ed:08:d1:ff:f8:18:0a:d6:58:15:c6:29:a0:ec:15:
        85:c8:0f:1f
-----BEGIN CERTIFICATE-----
MIIEQDCCAyigAwIBAgIBNTANBgkqhkiG9w0BAQsFADBXMQswCQYDVQQGEwJVUzEP
MA0GA1UECgwGR29vZ2xlMRMwEQYDVQQLDApFbnRlcnByaXNlMSIwIAYDVQQDDBlF
bnRlcnByaXNlIFN1Ym9yZGluYXRlIENBMB4XDTIzMDMyNjIwNTIzMFoXDTI1MDcw
MzIwNTIzMFowVDELMAkGA1UEBhMCVVMxDzANBgNVBAoMBkdvb2dsZTETMBEGA1UE
CwwKRW50ZXJwcmlzZTEfMB0GA1UEAwwWdGVlLm9wZXJhdG9yZG9tYWluLmNvbTCC
ASIwDQYJKoZIhvcNAQEBBQADggEPADCCAQoCggEBALDInNEZOu2dhsuCBklw8tjq
X/U+8LHui+G3Z/34Pxu6QRKMCuvyJ259zwpadjzdp2f4y5xieNJDl9tQqwpKpbfU
7k0gY92kmFgkVVqk2hz5c5850fvpNT/Ll5rUnZof8NXQHM2qyLIu0O7irsyL3sQF
AoEObMZA+OxAzydgRHa3dAc9/HD4WOzOST19Es5o66rruayVOoySOlMqPBvOVleQ
qMtHURqiqaU6Tdp0feJQwtgO3auHE708iR7jr9pcdM8wR2Jimr6SEADmH56urarQ
34vwFCkoMkN6y24dBWWytcQmhXeYyBiNnChrD7PlI+CFUS89gBVFSL/OC0LjPosC
AwEAAaOCARgwggEUMA4GA1UdDwEB/wQEAwIHgDAJBgNVHRMEAjAAMBMGA1UdJQQM
MAoGCCsGAQUFBwMBMB0GA1UdDgQWBBQP+8YT8DZfdh+n+/AOBhV3DsT0czAfBgNV
HSMEGDAWgBS3urACoee+NMbBBVxmeOW7U12hVDBEBggrBgEFBQcBAQQ4MDYwNAYI
KwYBBQUHMAKGKGh0dHA6Ly9wa2kuZXNvZGVtb2FwcDIuY29tL2NhL3Rscy1jYS5j
ZXIwOQYDVR0fBDIwMDAuoCygKoYoaHR0cDovL3BraS5lc29kZW1vYXBwMi5jb20v
Y2EvdGxzLWNhLmNybDAhBgNVHREEGjAYghZ0ZWUub3BlcmF0b3Jkb21haW4uY29t
MA0GCSqGSIb3DQEBCwUAA4IBAQCmqqWluF6XWAaxSYtbucq6J8V11eL+aj00WaB3
V5ACl7AK5luIbwdmPspxkKTGATtTUpr4G8ehxuz+s1ecnMBUGhdpFUIGz2Ju11w5
k8u24rEV3xMqCGz5GkpGOjJObJlJxCgBuSOtNKUk8+y+r3w8fiDxsK5cQz/Y0Afn
JUNejTO94+gH5AXmBeoqdbobUz8pl7cYEyHoyHyzyytkG27vef5ILUrvDM6o5yed
Vp1HOOLF+ZdCXZemEV9Bp+gbml3OseEO1VdOzbRbhgmfJ1z6Xfi159iKVdgEM48x
mFx5M/rsebKwibL8dMhjyGjtCNH/+BgK1lgVximg7BWFyA8f
-----END CERTIFICATE-----
