Certificate:
    Data:
        Version: 3 (0x2)
        Serial Number: 3 (0x3)
        Signature Algorithm: sha256WithRSAEncryption
        Issuer: C=US, O=Collaborator 1, OU=Enterprise, CN=Collaborator 1 Root CA
        Validity
            Not Before: Apr 17 12:09:01 2023 GMT
            Not After : Apr 16 12:09:01 2033 GMT
        Subject: L=US, O=Google, OU=Enterprise, CN=client.collaborator1.com
        Subject Public Key Info:
            Public Key Algorithm: rsaEncryption
                Public-Key: (2048 bit)
                Modulus:
                    00:c5:a9:1d:81:57:2a:5f:3d:af:4c:7a:94:1a:27:
                    53:14:25:8e:00:20:cb:59:b8:c8:67:12:d6:d9:7d:
                    b8:26:0d:83:d2:87:e0:ff:cd:e6:b1:02:7c:85:d9:
                    57:b6:dc:6a:cc:09:0c:5e:30:54:e1:1c:f2:f2:47:
                    45:ec:25:1d:e2:39:8a:7a:41:17:36:3a:28:a9:d2:
                    71:fe:13:34:88:5f:11:40:7d:4e:8b:f4:ca:2e:a8:
                    2b:5b:4b:02:40:87:32:a4:24:ba:67:80:34:6d:3d:
                    0c:57:e5:41:9c:43:44:46:1f:23:37:f3:06:9f:78:
                    4a:5c:92:8d:7d:7c:39:74:b9:1f:28:13:5e:e1:fd:
                    a1:a3:78:92:b5:8c:d1:60:97:ad:4d:c0:45:c1:57:
                    a4:d8:47:93:91:dd:4c:49:fd:47:c5:98:27:a8:c6:
                    ec:93:35:3c:b0:c7:71:58:2b:31:53:2e:b4:c3:32:
                    e9:86:56:3d:fb:aa:a2:a1:44:47:5d:42:81:8f:9a:
                    97:99:d3:93:3f:59:94:3c:6c:c6:a0:85:69:9a:f7:
                    de:f6:99:18:9a:cb:f2:42:0d:9d:af:a3:76:4c:78:
                    78:3e:cd:a4:cc:5c:6c:3e:c6:39:d4:05:58:eb:2b:
                    c0:f7:68:00:1d:87:11:00:f0:1c:15:7e:54:3c:ed:
                    91:c3
                Exponent: 65537 (0x10001)
        X509v3 extensions:
            X509v3 Key Usage: critical
                Digital Signature
            X509v3 Basic Constraints: 
                CA:FALSE
            X509v3 Extended Key Usage: 
                TLS Web Client Authentication
            X509v3 Subject Key Identifier: 
                F0:51:96:B5:D1:D5:F6:BF:6A:99:20:88:DC:6F:D9:B9:FD:91:D8:60
            X509v3 Authority Key Identifier: 
                75:0D:12:CC:DB:33:ED:58:06:8C:AD:ED:0E:9E:2F:00:E9:6F:C1:65
            X509v3 CRL Distribution Points: 
                Full Name:
                  URI:http://pki.esodemoapp2.com/ca/root-ca.crl
            X509v3 Subject Alternative Name: 
                DNS:client.collaborator1.com
            Authority Information Access: 
                OCSP - URI:http://localhost:9999/
    Signature Algorithm: sha256WithRSAEncryption
    Signature Value:
        a8:96:f9:0e:f4:9b:36:ab:56:4f:95:1f:79:2f:0f:a7:04:02:
        d6:5c:d3:c5:fe:72:17:a8:cf:37:15:c5:98:8b:82:36:c3:67:
        cd:11:6a:31:63:a7:e2:9d:bb:19:2b:19:00:df:fb:a6:ac:5a:
        4f:ec:00:4e:90:2a:64:e0:fc:f7:a2:7b:c4:db:99:a0:42:0a:
        1d:b2:0c:16:db:e6:de:21:20:98:2d:8e:dc:45:38:45:f0:04:
        d7:b4:d4:52:95:64:ed:29:e4:71:a0:c9:1c:a1:39:a8:b4:a1:
        3f:7d:f7:53:b4:70:03:92:d6:76:f7:3f:db:ff:e3:77:06:bf:
        07:4e:6f:5f:0b:dc:fc:66:51:2a:0e:02:2c:43:df:8a:73:a3:
        3f:c3:78:9a:34:3b:c3:4c:77:26:2e:9a:d9:87:42:cf:df:98:
        29:c5:57:c3:d1:94:1c:10:4b:14:c1:01:5a:ce:51:cc:87:de:
        f6:2a:c9:9a:01:3b:a9:90:d8:35:9c:c6:3e:b3:ed:72:f3:c5:
        3d:e1:f8:7b:2d:dc:d9:19:21:24:54:ef:9b:5c:aa:96:b7:68:
        b4:83:fb:df:fb:66:83:fa:23:72:64:fe:bb:40:a5:f3:0d:21:
        5d:6c:eb:58:02:1a:d2:76:16:26:e3:91:bd:b5:c1:1b:68:2f:
        18:26:ff:31
-----BEGIN CERTIFICATE-----
MIIEODCCAyCgAwIBAgIBAzANBgkqhkiG9w0BAQsFADBcMQswCQYDVQQGEwJVUzEX
MBUGA1UECgwOQ29sbGFib3JhdG9yIDExEzARBgNVBAsMCkVudGVycHJpc2UxHzAd
BgNVBAMMFkNvbGxhYm9yYXRvciAxIFJvb3QgQ0EwHhcNMjMwNDE3MTIwOTAxWhcN
MzMwNDE2MTIwOTAxWjBWMQswCQYDVQQHDAJVUzEPMA0GA1UECgwGR29vZ2xlMRMw
EQYDVQQLDApFbnRlcnByaXNlMSEwHwYDVQQDDBhjbGllbnQuY29sbGFib3JhdG9y
MS5jb20wggEiMA0GCSqGSIb3DQEBAQUAA4IBDwAwggEKAoIBAQDFqR2BVypfPa9M
epQaJ1MUJY4AIMtZuMhnEtbZfbgmDYPSh+D/zeaxAnyF2Ve23GrMCQxeMFThHPLy
R0XsJR3iOYp6QRc2Oiip0nH+EzSIXxFAfU6L9MouqCtbSwJAhzKkJLpngDRtPQxX
5UGcQ0RGHyM38wafeEpcko19fDl0uR8oE17h/aGjeJK1jNFgl61NwEXBV6TYR5OR
3UxJ/UfFmCeoxuyTNTywx3FYKzFTLrTDMumGVj37qqKhREddQoGPmpeZ05M/WZQ8
bMaghWma9972mRiay/JCDZ2vo3ZMeHg+zaTMXGw+xjnUBVjrK8D3aAAdhxEA8BwV
flQ87ZHDAgMBAAGjggEJMIIBBTAOBgNVHQ8BAf8EBAMCB4AwCQYDVR0TBAIwADAT
BgNVHSUEDDAKBggrBgEFBQcDAjAdBgNVHQ4EFgQU8FGWtdHV9r9qmSCI3G/Zuf2R
2GAwHwYDVR0jBBgwFoAUdQ0SzNsz7VgGjK3tDp4vAOlvwWUwOgYDVR0fBDMwMTAv
oC2gK4YpaHR0cDovL3BraS5lc29kZW1vYXBwMi5jb20vY2Evcm9vdC1jYS5jcmww
IwYDVR0RBBwwGoIYY2xpZW50LmNvbGxhYm9yYXRvcjEuY29tMDIGCCsGAQUFBwEB
BCYwJDAiBggrBgEFBQcwAYYWaHR0cDovL2xvY2FsaG9zdDo5OTk5LzANBgkqhkiG
9w0BAQsFAAOCAQEAqJb5DvSbNqtWT5UfeS8PpwQC1lzTxf5yF6jPNxXFmIuCNsNn
zRFqMWOn4p27GSsZAN/7pqxaT+wATpAqZOD896J7xNuZoEIKHbIMFtvm3iEgmC2O
3EU4RfAE17TUUpVk7SnkcaDJHKE5qLShP333U7RwA5LWdvc/2//jdwa/B05vXwvc
/GZRKg4CLEPfinOjP8N4mjQ7w0x3Ji6a2YdCz9+YKcVXw9GUHBBLFMEBWs5RzIfe
9irJmgE7qZDYNZzGPrPtcvPFPeH4ey3c2RkhJFTvm1yqlrdotIP73/tmg/ojcmT+
u0Cl8w0hXWzrWAIa0nYWJuORvbXBG2gvGCb/MQ==
-----END CERTIFICATE-----
