Certificate:
    Data:
        Version: 3 (0x2)
        Serial Number: 1 (0x1)
        Signature Algorithm: sha256WithRSAEncryption
        Issuer: C=US, O=Collaborator 2, OU=Enterprise, CN=Collaborator 2 Root CA
        Validity
            Not Before: Apr 17 12:13:03 2023 GMT
            Not After : Apr 16 12:13:03 2033 GMT
        Subject: C=US, O=Collaborator 2, OU=Enterprise, CN=Collaborator 2 Root CA
        Subject Public Key Info:
            Public Key Algorithm: rsaEncryption
                Public-Key: (2048 bit)
                Modulus:
                    00:a8:62:b9:73:8b:c7:2e:d0:fe:1e:52:90:83:94:
                    fe:70:61:5a:10:18:85:74:27:7c:38:eb:da:ae:31:
                    d6:2c:7f:7f:63:7f:af:49:a4:c6:8a:04:35:f4:c4:
                    c4:df:8d:6d:45:22:1c:eb:d2:18:97:a5:4f:9f:5f:
                    3e:84:b6:93:ef:8a:b2:8d:1c:37:d3:30:37:68:66:
                    51:81:b0:82:d1:be:ce:38:13:20:c5:dc:02:3c:8f:
                    6a:f7:5b:5e:8c:16:a5:d9:30:91:21:e1:82:10:c1:
                    5b:cf:57:c6:9e:90:30:5e:23:30:e2:18:89:ba:ef:
                    a6:09:3c:cc:eb:f2:78:1a:d0:f3:a7:ce:4e:08:6e:
                    f8:43:56:33:c8:c6:1d:40:f0:7a:76:a8:fc:18:1d:
                    7b:09:eb:1a:8d:f5:56:6c:65:62:a8:f2:49:07:85:
                    f9:d9:42:df:a7:cf:f8:f1:ae:a7:ed:50:48:a5:9c:
                    fc:a0:ee:24:70:c2:f1:ae:f1:a9:af:c0:fa:51:f6:
                    10:fe:f6:9b:a3:8a:5d:1a:4d:bb:7a:25:a1:0e:2b:
                    0a:d8:ff:68:30:96:0d:5c:6e:39:1b:75:0b:ac:75:
                    07:14:e6:7d:c2:6a:ce:d6:6a:c0:5d:62:fd:29:50:
                    1a:e6:5a:14:80:80:37:46:7a:e4:f1:79:d1:14:d2:
                    f5:ff
                Exponent: 65537 (0x10001)
        X509v3 extensions:
            X509v3 Key Usage: critical
                Certificate Sign, CRL Sign
            X509v3 Basic Constraints: critical
                CA:TRUE
            X509v3 Subject Key Identifier: 
                B2:77:C7:6F:8E:7D:55:E8:82:B5:F1:AC:98:66:85:0D:DF:56:3F:31
            X509v3 Authority Key Identifier: 
                B2:77:C7:6F:8E:7D:55:E8:82:B5:F1:AC:98:66:85:0D:DF:56:3F:31
            X509v3 Extended Key Usage: 
                TLS Web Server Authentication, TLS Web Client Authentication
            Authority Information Access: 
                OCSP - URI:http://localhost:10000/
    Signature Algorithm: sha256WithRSAEncryption
    Signature Value:
        9e:73:0b:20:a4:2c:7b:41:be:3a:8b:f2:0d:d8:4f:c2:07:b5:
        a3:df:97:d2:a6:93:1a:94:a9:9e:a5:a2:24:bf:be:85:f1:9c:
        22:3c:63:42:ee:76:21:85:ac:58:fb:88:aa:3f:dd:d8:51:63:
        9d:db:5e:76:07:dc:e3:fe:27:0b:ab:d5:0e:88:64:ec:e5:c7:
        e0:d1:59:d5:de:21:31:79:09:d7:91:1e:34:c2:f9:1c:db:1f:
        4b:61:a6:12:e9:ba:12:7c:b4:0d:17:5d:16:83:6f:2a:53:e5:
        58:52:50:da:73:13:d3:cd:5f:26:59:5e:af:5c:9e:83:3f:87:
        40:44:ae:66:b2:99:fc:2e:28:de:3f:47:1c:8c:f4:ad:40:a7:
        4b:65:6b:d8:82:14:4d:17:e9:20:59:21:25:47:90:1b:e0:b6:
        e6:3d:b4:e5:cc:be:9c:44:97:be:84:eb:f4:c2:cd:44:8c:2f:
        e9:76:9e:bc:67:4a:65:0c:14:27:83:a0:20:e8:71:46:44:80:
        1e:1a:fb:f2:2a:37:fb:30:58:6f:a7:ff:f9:30:2a:e8:fc:b9:
        c4:11:b7:82:02:8d:00:51:0f:75:27:6e:01:dd:9e:73:6b:2b:
        6d:3e:82:dd:46:a0:6c:70:8f:9a:a8:61:74:67:6b:5f:96:03:
        ea:1e:12:12
-----BEGIN CERTIFICATE-----
MIID7DCCAtSgAwIBAgIBATANBgkqhkiG9w0BAQsFADBcMQswCQYDVQQGEwJVUzEX
MBUGA1UECgwOQ29sbGFib3JhdG9yIDIxEzARBgNVBAsMCkVudGVycHJpc2UxHzAd
BgNVBAMMFkNvbGxhYm9yYXRvciAyIFJvb3QgQ0EwHhcNMjMwNDE3MTIxMzAzWhcN
MzMwNDE2MTIxMzAzWjBcMQswCQYDVQQGEwJVUzEXMBUGA1UECgwOQ29sbGFib3Jh
dG9yIDIxEzARBgNVBAsMCkVudGVycHJpc2UxHzAdBgNVBAMMFkNvbGxhYm9yYXRv
ciAyIFJvb3QgQ0EwggEiMA0GCSqGSIb3DQEBAQUAA4IBDwAwggEKAoIBAQCoYrlz
i8cu0P4eUpCDlP5wYVoQGIV0J3w469quMdYsf39jf69JpMaKBDX0xMTfjW1FIhzr
0hiXpU+fXz6EtpPvirKNHDfTMDdoZlGBsILRvs44EyDF3AI8j2r3W16MFqXZMJEh
4YIQwVvPV8aekDBeIzDiGIm676YJPMzr8nga0POnzk4IbvhDVjPIxh1A8Hp2qPwY
HXsJ6xqN9VZsZWKo8kkHhfnZQt+nz/jxrqftUEilnPyg7iRwwvGu8amvwPpR9hD+
9pujil0aTbt6JaEOKwrY/2gwlg1cbjkbdQusdQcU5n3Cas7WasBdYv0pUBrmWhSA
gDdGeuTxedEU0vX/AgMBAAGjgbgwgbUwDgYDVR0PAQH/BAQDAgEGMA8GA1UdEwEB
/wQFMAMBAf8wHQYDVR0OBBYEFLJ3x2+OfVXogrXxrJhmhQ3fVj8xMB8GA1UdIwQY
MBaAFLJ3x2+OfVXogrXxrJhmhQ3fVj8xMB0GA1UdJQQWMBQGCCsGAQUFBwMBBggr
BgEFBQcDAjAzBggrBgEFBQcBAQQnMCUwIwYIKwYBBQUHMAGGF2h0dHA6Ly9sb2Nh
bGhvc3Q6MTAwMDAvMA0GCSqGSIb3DQEBCwUAA4IBAQCecwsgpCx7Qb46i/IN2E/C
B7Wj35fSppMalKmepaIkv76F8ZwiPGNC7nYhhaxY+4iqP93YUWOd2152B9zj/icL
q9UOiGTs5cfg0VnV3iExeQnXkR40wvkc2x9LYaYS6boSfLQNF10Wg28qU+VYUlDa
cxPTzV8mWV6vXJ6DP4dARK5mspn8LijeP0ccjPStQKdLZWvYghRNF+kgWSElR5Ab
4LbmPbTlzL6cRJe+hOv0ws1EjC/pdp68Z0plDBQng6Ag6HFGRIAeGvvyKjf7MFhv
p//5MCro/LnEEbeCAo0AUQ91J24B3Z5zayttPoLdRqBscI+aqGF0Z2tflgPqHhIS
-----END CERTIFICATE-----
